target datalayout = "e-m:e-p270:32:32-p271:32:32-p272:64:64-i64:64-i128:128-f80:128-n8:16:32:64-S128"
target triple = "x86_64-pc-linux-gnu"

%struct.x509_st = type { %struct.x509_cinf_st, %struct.X509_algor_st, %struct.asn1_string_st, %struct.x509_sig_info_st, %struct.CRYPTO_REF_COUNT, %struct.crypto_ex_data_st, i64, i64, i32, i32, i32, i32, ptr, ptr, ptr, ptr, ptr, ptr, ptr, ptr, [20 x i8], ptr, ptr, i32, ptr, ptr, ptr }
%struct.x509_cinf_st = type { ptr, %struct.asn1_string_st, %struct.X509_algor_st, ptr, %struct.X509_val_st, ptr, ptr, ptr, ptr, ptr, %struct.ASN1_ENCODING_st }
%struct.X509_val_st = type { ptr, ptr }
%struct.ASN1_ENCODING_st = type { ptr, i64, i32 }
%struct.X509_algor_st = type { ptr, ptr }
%struct.asn1_string_st = type { i32, i32, ptr, i64 }
%struct.x509_sig_info_st = type { i32, i32, i32, i32 }
%struct.CRYPTO_REF_COUNT = type { i32 }
%struct.crypto_ex_data_st = type { ptr, ptr }
%struct.x509_cert_aux_st = type { ptr, ptr, ptr, ptr, ptr }

@X509_CERT_AUX_it.local_it = internal constant { i8, [7 x i8], i64, ptr, i64, ptr, i64, ptr } { i8 1, [7 x i8] zeroinitializer, i64 16, ptr @X509_CERT_AUX_seq_tt, i64 5, ptr null, i64 40, ptr @.str }, align 8

; Function Attrs: nounwind uwtable
define ptr @X509_CERT_AUX_it() #0 {
  ret ptr @X509_CERT_AUX_it.local_it
}

; Function Attrs: nounwind uwtable
define ptr @X509_CERT_AUX_new() #0 {
  %1 = call ptr @X509_CERT_AUX_it()
  %2 = call ptr @ASN1_item_new(ptr noundef %1)
  ret ptr %2
}

; Function Attrs: inlinehint nounwind uwtable
define internal ptr @ossl_check_ASN1_OBJECT_type(ptr noundef %0) #3 {
  %2 = alloca ptr, align 8
  store ptr %0, ptr %2, align 8, !tbaa !54
  %3 = load ptr, ptr %2, align 8, !tbaa !54
  ret ptr %3
}

; Function Attrs: inlinehint nounwind uwtable
define internal ptr @ossl_check_ASN1_OBJECT_sk_type(ptr noundef %0) #3 {
  %2 = alloca ptr, align 8
  store ptr %0, ptr %2, align 8, !tbaa !56
  %3 = load ptr, ptr %2, align 8, !tbaa !56
  ret ptr %3
}

; Function Attrs: nounwind uwtable
define internal ptr @aux_get(ptr noundef %0) #0 {
  %2 = alloca ptr, align 8
  %3 = alloca ptr, align 8
  store ptr %0, ptr %3, align 8, !tbaa !14
  %4 = load ptr, ptr %3, align 8, !tbaa !14
  %5 = icmp eq ptr %4, null
  br i1 %5, label %6, label %7

6:                                                ; preds = %1
  store ptr null, ptr %2, align 8
  br label %22

7:                                                ; preds = %1
  %8 = load ptr, ptr %3, align 8, !tbaa !14
  %9 = getelementptr inbounds nuw %struct.x509_st, ptr %8, i32 0, i32 21
  %10 = load ptr, ptr %9, align 8, !tbaa !16
  %11 = icmp eq ptr %10, null
  br i1 %11, label %12, label %18

12:                                               ; preds = %7
  %13 = call ptr @X509_CERT_AUX_new()
  %14 = load ptr, ptr %3, align 8, !tbaa !14
  %15 = getelementptr inbounds nuw %struct.x509_st, ptr %14, i32 0, i32 21
  store ptr %13, ptr %15, align 8, !tbaa !16
  %16 = icmp eq ptr %13, null
  br i1 %16, label %17, label %18

17:                                               ; preds = %12
  store ptr null, ptr %2, align 8
  br label %22

18:                                               ; preds = %12, %7
  %19 = load ptr, ptr %3, align 8, !tbaa !14
  %20 = getelementptr inbounds nuw %struct.x509_st, ptr %19, i32 0, i32 21
  %21 = load ptr, ptr %20, align 8, !tbaa !16
  store ptr %21, ptr %2, align 8
  br label %22

22:                                               ; preds = %18, %17, %6
  %23 = load ptr, ptr %2, align 8
  ret ptr %23
}

; Function Attrs: nounwind uwtable
define i32 @X509_add1_trust_object(ptr noundef %0, ptr noundef %1) #0 {
  %3 = alloca i32, align 4
  %4 = alloca ptr, align 8
  %5 = alloca ptr, align 8
  %6 = alloca ptr, align 8
  %7 = alloca ptr, align 8
  %8 = alloca i32, align 4
  store ptr %0, ptr %4, align 8, !tbaa !14
  store ptr %1, ptr %5, align 8, !tbaa !54
  call void @llvm.lifetime.start.p0(i64 8, ptr %6) #4
  call void @llvm.lifetime.start.p0(i64 8, ptr %7) #4
  store ptr null, ptr %7, align 8, !tbaa !54
  %9 = load ptr, ptr %5, align 8, !tbaa !54
  %10 = icmp ne ptr %9, null
  br i1 %10, label %11, label %18

11:                                               ; preds = %2
  %12 = load ptr, ptr %5, align 8, !tbaa !54
  %13 = call ptr @OBJ_dup(ptr noundef %12)
  store ptr %13, ptr %7, align 8, !tbaa !54
  %14 = load ptr, ptr %7, align 8, !tbaa !54
  %15 = icmp ne ptr %14, null
  br i1 %15, label %17, label %16

16:                                               ; preds = %11
  store i32 0, ptr %3, align 4
  store i32 1, ptr %8, align 4
  br label %50

17:                                               ; preds = %11
  br label %18

18:                                               ; preds = %17, %2
  %19 = load ptr, ptr %4, align 8, !tbaa !14
  %20 = call ptr @aux_get(ptr noundef %19)
  store ptr %20, ptr %6, align 8, !tbaa !12
  %21 = icmp eq ptr %20, null
  br i1 %21, label %22, label %23

22:                                               ; preds = %18
  br label %48

23:                                               ; preds = %18
  %24 = load ptr, ptr %6, align 8, !tbaa !12
  %25 = getelementptr inbounds nuw %struct.x509_cert_aux_st, ptr %24, i32 0, i32 0
  %26 = load ptr, ptr %25, align 8, !tbaa !55
  %27 = icmp eq ptr %26, null
  br i1 %27, label %28, label %34

28:                                               ; preds = %23
  %29 = call ptr @OPENSSL_sk_new_null()
  %30 = load ptr, ptr %6, align 8, !tbaa !12
  %31 = getelementptr inbounds nuw %struct.x509_cert_aux_st, ptr %30, i32 0, i32 0
  store ptr %29, ptr %31, align 8, !tbaa !55
  %32 = icmp eq ptr %29, null
  br i1 %32, label %33, label %34

33:                                               ; preds = %28
  br label %48

34:                                               ; preds = %28, %23
  %35 = load ptr, ptr %7, align 8, !tbaa !54
  %36 = icmp ne ptr %35, null
  br i1 %36, label %37, label %46

37:                                               ; preds = %34
  %38 = load ptr, ptr %6, align 8, !tbaa !12
  %39 = getelementptr inbounds nuw %struct.x509_cert_aux_st, ptr %38, i32 0, i32 0
  %40 = load ptr, ptr %39, align 8, !tbaa !55
  %41 = call ptr @ossl_check_ASN1_OBJECT_sk_type(ptr noundef %40)
  %42 = load ptr, ptr %7, align 8, !tbaa !54
  %43 = call ptr @ossl_check_ASN1_OBJECT_type(ptr noundef %42)
  %44 = call i32 @OPENSSL_sk_push(ptr noundef %41, ptr noundef %43)
  %45 = icmp ne i32 %44, 0
  br i1 %45, label %46, label %47

46:                                               ; preds = %37, %34
  store i32 1, ptr %3, align 4
  store i32 1, ptr %8, align 4
  br label %50

47:                                               ; preds = %37
  br label %48

48:                                               ; preds = %47, %33, %22
  %49 = load ptr, ptr %7, align 8, !tbaa !54
  call void @ASN1_OBJECT_free(ptr noundef %49)
  store i32 0, ptr %3, align 4
  store i32 1, ptr %8, align 4
  br label %50

50:                                               ; preds = %48, %46, %16
  call void @llvm.lifetime.end.p0(i64 8, ptr %7) #4
  call void @llvm.lifetime.end.p0(i64 8, ptr %6) #4
  %51 = load i32, ptr %3, align 4
  ret i32 %51
}