; Function Attrs: nounwind uwtable
define range(i32 0, 2) i32 @X509_add1_trust_object(ptr noundef captures(address_is_null) %0, ptr noundef %1) local_unnamed_addr #1 {
  %.not = icmp eq ptr %1, null
  br i1 %.not, label %5, label %3

3:                                                ; preds = %2
  %4 = tail call ptr @OBJ_dup(ptr noundef nonnull %1) #6
  %.not14 = icmp eq ptr %4, null
  br i1 %.not14, label %22, label %5

5:                                                ; preds = %3, %2
  %.0 = phi ptr [ %4, %3 ], [ null, %2 ]
  %6 = icmp eq ptr %0, null
  br i1 %6, label %aux_get.exit.thread, label %7

7:                                                ; preds = %5
  %8 = getelementptr inbounds nuw i8, ptr %0, i64 336
  %9 = load ptr, ptr %8, align 8, !tbaa !3
  %10 = icmp eq ptr %9, null
  br i1 %10, label %aux_get.exit, label %aux_get.exit.thread18

aux_get.exit:                                     ; preds = %7
  %11 = tail call ptr @ASN1_item_new(ptr noundef nonnull @X509_CERT_AUX_it.local_it) #6
  store ptr %11, ptr %8, align 8, !tbaa !3
  %12 = icmp eq ptr %11, null
  br i1 %12, label %aux_get.exit.thread, label %aux_get.exit.thread18

aux_get.exit.thread18:                            ; preds = %7, %aux_get.exit
  %.0.i20 = phi ptr [ %11, %aux_get.exit ], [ %9, %7 ]
  %13 = load ptr, ptr %.0.i20, align 8, !tbaa !43
  %14 = icmp eq ptr %13, null
  br i1 %14, label %15, label %18

15:                                               ; preds = %aux_get.exit.thread18
  %16 = tail call ptr @OPENSSL_sk_new_null() #6
  store ptr %16, ptr %.0.i20, align 8, !tbaa !43
  %17 = icmp eq ptr %16, null
  br i1 %17, label %aux_get.exit.thread, label %18

18:                                               ; preds = %15, %aux_get.exit.thread18
  %19 = phi ptr [ %16, %15 ], [ %13, %aux_get.exit.thread18 ]
  %.not15 = icmp eq ptr %.0, null
  br i1 %.not15, label %22, label %20

20:                                               ; preds = %18
  %21 = tail call i32 @OPENSSL_sk_push(ptr noundef nonnull %19, ptr noundef nonnull %.0) #6
  %.not16 = icmp eq i32 %21, 0
  br i1 %.not16, label %aux_get.exit.thread, label %22

aux_get.exit.thread:                              ; preds = %5, %20, %15, %aux_get.exit
  tail call void @ASN1_OBJECT_free(ptr noundef %.0) #6
  br label %22

22:                                               ; preds = %18, %20, %3, %aux_get.exit.thread
  %.010 = phi i32 [ 0, %aux_get.exit.thread ], [ 0, %3 ], [ 1, %20 ], [ 1, %18 ]
  ret i32 %.010
}